Certificate:
    Data:
        Version: 3 (0x2)
        Serial Number:
            aa:50:ad:b1:4b:31:03:0f
        Signature Algorithm: sha256WithRSAEncryption
        Issuer: C = DE, ST = Berlin, L = Berlin, O = buengese Network, OU = IT, CN = buengese Network Certificate Authority, emailAddress = admin@bmncloud.com
        Validity
            Not Before: Jan 13 17:48:20 2017 GMT
            Not After : Jan 12 17:48:20 2022 GMT
        Subject: C = DE, ST = Berlin, L = Berlin, O = buengese Network, OU = IT, CN = buengese Network Certificate Authority, emailAddress = admin@bmncloud.com
        Subject Public Key Info:
            Public Key Algorithm: rsaEncryption
                RSA Public-Key: (4096 bit)
                Modulus:
                    00:b7:e8:83:97:0d:e0:8c:13:85:b1:7d:95:07:5f:
                    16:0d:86:fd:43:9b:3b:30:39:ae:6c:02:7f:85:70:
                    0d:46:0d:78:d0:b6:ad:d7:66:15:5f:bd:1a:ea:ac:
                    d1:9a:33:ce:03:3f:89:82:a6:54:99:9b:32:29:68:
                    e7:f2:c0:6d:2f:85:6d:88:07:39:fe:da:8a:c4:8f:
                    e7:87:39:7c:7c:13:af:f4:98:0f:45:0a:15:49:ff:
                    f1:27:3f:c4:27:7d:3c:26:ca:a1:0a:09:57:82:39:
                    74:e6:4f:f0:25:2c:48:b3:97:84:7e:5a:f3:96:87:
                    92:a4:2e:08:14:68:c6:f4:c6:56:28:6f:63:44:3f:
                    78:dd:83:30:a7:3d:5a:51:18:e0:f6:c1:10:69:e5:
                    d4:5c:20:8f:ca:02:8f:fe:1c:e6:8f:14:da:46:34:
                    49:53:a4:c7:26:e9:1c:3c:9a:39:50:84:53:3a:b0:
                    21:d5:62:0b:74:89:e7:02:9c:24:86:99:9a:90:33:
                    a1:60:f7:d1:c0:6c:8f:a7:dc:da:70:f8:81:60:90:
                    00:e6:11:57:c2:65:ff:47:19:88:73:f2:10:7f:f4:
                    0f:7e:46:4a:4a:4e:d5:6d:db:5f:c2:02:f0:da:a6:
                    a7:27:f5:3f:78:4a:d2:d3:e3:a4:43:f1:5d:7c:1d:
                    91:1e:8e:ec:36:e6:13:f0:ca:8f:1d:1d:cc:c1:60:
                    b8:a3:3f:cc:73:dd:78:cd:33:9f:5a:f1:b5:49:9d:
                    69:40:94:fc:e7:48:dc:d2:85:f1:eb:d3:cb:64:73:
                    0a:b0:c8:cd:02:f5:58:97:52:2e:28:3c:96:d1:99:
                    57:54:b9:a4:ff:75:83:7f:6a:dc:12:a4:96:39:ae:
                    2c:48:f4:a9:c1:c3:6a:63:3a:db:c0:d2:7b:05:cf:
                    2c:d9:62:1a:cb:e4:a2:30:68:a1:e4:76:4a:ab:39:
                    5a:48:b9:e1:16:2d:8e:9b:99:d8:31:47:39:14:9d:
                    3c:46:5f:b0:c5:98:15:0d:21:70:41:f5:bc:18:95:
                    89:c3:49:a6:5b:f2:c1:75:ad:8f:50:91:f7:3e:98:
                    4a:9d:80:d9:31:5b:38:9d:c9:1c:cb:77:bc:eb:da:
                    b8:3b:d3:ca:96:51:18:cd:76:8c:f9:24:26:6d:2c:
                    3e:7e:3f:67:52:04:ca:16:47:7f:f9:6e:4b:0e:d4:
                    15:36:99:f2:8b:01:24:fe:c6:c1:df:86:1e:3d:dd:
                    3a:51:7f:69:79:5a:bf:cb:9f:17:0e:cb:d4:76:8d:
                    db:3a:73:37:dd:1c:76:95:e4:f4:2e:13:b9:c0:d1:
                    95:2b:cc:4f:22:ab:0e:19:7e:f6:8c:45:e7:60:3c:
                    0d:81:7f
                Exponent: 65537 (0x10001)
        X509v3 extensions:
            X509v3 Subject Key Identifier: 
                E9:4A:39:39:FA:94:81:14:E8:E3:8E:28:82:00:6C:F3:92:07:6A:F3
            X509v3 Authority Key Identifier: 
                keyid:E9:4A:39:39:FA:94:81:14:E8:E3:8E:28:82:00:6C:F3:92:07:6A:F3

            X509v3 Basic Constraints: critical
                CA:TRUE
            X509v3 Key Usage: 
                Certificate Sign, CRL Sign
    Signature Algorithm: sha256WithRSAEncryption
         04:24:a9:f1:64:15:3f:56:5b:51:01:40:a0:73:a4:89:bd:6c:
         50:68:74:db:c8:63:8a:17:39:de:87:58:6c:da:12:21:49:11:
         3f:99:fa:4d:db:1e:61:ef:a1:4a:81:3b:54:5a:d0:5c:22:8c:
         b7:82:fb:76:eb:d4:83:b4:cb:73:28:1c:3e:06:37:16:1f:6e:
         6d:8d:c0:2b:33:bc:80:f4:6d:e6:d5:ee:09:d4:74:60:3e:a1:
         c0:0d:3f:2e:2a:bf:2b:ff:19:56:5e:24:a8:cc:4a:53:1b:e2:
         94:88:f4:d4:fd:9d:b4:9f:76:e0:8a:67:cc:bc:f3:2b:83:15:
         71:90:aa:4b:87:50:cb:9f:41:a1:d1:7c:e9:3b:0a:fc:ed:79:
         51:7f:17:31:67:0b:2b:af:85:4c:78:9f:b1:a6:9c:1f:0e:10:
         81:ad:8e:ab:d9:0b:50:08:6c:0d:97:d8:46:0f:71:44:ea:bd:
         dd:c7:e6:ef:25:cd:60:80:00:8b:be:60:ec:ff:1e:21:e4:5b:
         d2:7c:cb:5b:80:f9:60:fe:d5:eb:72:70:87:fe:3f:e6:8f:cf:
         ef:0b:ae:a0:b2:00:a4:5f:35:f2:5b:b9:11:e6:17:95:b2:d6:
         8e:00:08:6f:8c:97:7c:6b:1d:c8:a5:70:34:94:f0:0c:dd:a9:
         49:c3:4f:ce:61:8b:2a:21:ad:30:46:bc:83:5e:36:89:07:b1:
         06:7b:1f:5e:1e:60:93:58:17:22:52:eb:2d:a6:e2:2c:87:6b:
         91:b1:1b:9a:86:45:f8:00:2a:44:54:f2:34:b0:29:e5:d9:4c:
         41:ab:f1:08:a3:9d:4e:88:69:67:59:e4:1a:f0:d7:da:fd:68:
         10:26:c0:ae:d8:d9:e4:4e:cf:18:f7:4b:d6:06:5d:41:73:77:
         1c:1f:1c:5c:29:cc:6e:a0:fb:fe:92:49:1a:5c:6b:91:4e:95:
         30:43:cd:b0:fe:17:04:3c:53:de:1a:75:63:f5:43:22:b4:38:
         65:31:51:ef:38:0a:32:0f:e6:82:f3:13:8d:47:be:c2:c7:ee:
         14:8c:f8:09:fb:7c:ab:36:bd:c7:78:ea:79:9d:2c:99:f1:bf:
         d2:32:7e:b7:0d:12:a2:9d:d9:b2:d5:e4:a0:6d:78:82:d5:84:
         64:c0:2c:1c:7f:fd:f3:8a:0b:aa:18:e6:8f:28:25:c5:c5:76:
         f9:11:68:cf:5f:c9:ff:47:e2:1b:5e:46:8d:f9:ea:9a:c9:d8:
         dc:16:21:57:8a:90:ed:a7:b6:5c:24:61:b7:c5:15:75:6d:91:
         98:16:2a:27:c1:9b:45:26:11:1e:05:78:30:40:a9:d1:bb:1e:
         27:aa:2d:8d:8a:3c:b6:d6
-----BEGIN CERTIFICATE-----
MIIGOzCCBCOgAwIBAgIJAKpQrbFLMQMPMA0GCSqGSIb3DQEBCwUAMIGrMQswCQYD
VQQGEwJERTEPMA0GA1UECAwGQmVybGluMQ8wDQYDVQQHDAZCZXJsaW4xGTAXBgNV
BAoMEGJ1ZW5nZXNlIE5ldHdvcmsxCzAJBgNVBAsMAklUMS8wLQYDVQQDDCZidWVu
Z2VzZSBOZXR3b3JrIENlcnRpZmljYXRlIEF1dGhvcml0eTEhMB8GCSqGSIb3DQEJ
ARYSYWRtaW5AYm1uY2xvdWQuY29tMB4XDTE3MDExMzE3NDgyMFoXDTIyMDExMjE3
NDgyMFowgasxCzAJBgNVBAYTAkRFMQ8wDQYDVQQIDAZCZXJsaW4xDzANBgNVBAcM
BkJlcmxpbjEZMBcGA1UECgwQYnVlbmdlc2UgTmV0d29yazELMAkGA1UECwwCSVQx
LzAtBgNVBAMMJmJ1ZW5nZXNlIE5ldHdvcmsgQ2VydGlmaWNhdGUgQXV0aG9yaXR5
MSEwHwYJKoZIhvcNAQkBFhJhZG1pbkBibW5jbG91ZC5jb20wggIiMA0GCSqGSIb3
DQEBAQUAA4ICDwAwggIKAoICAQC36IOXDeCME4WxfZUHXxYNhv1DmzswOa5sAn+F
cA1GDXjQtq3XZhVfvRrqrNGaM84DP4mCplSZmzIpaOfywG0vhW2IBzn+2orEj+eH
OXx8E6/0mA9FChVJ//EnP8QnfTwmyqEKCVeCOXTmT/AlLEizl4R+WvOWh5KkLggU
aMb0xlYob2NEP3jdgzCnPVpRGOD2wRBp5dRcII/KAo/+HOaPFNpGNElTpMcm6Rw8
mjlQhFM6sCHVYgt0iecCnCSGmZqQM6Fg99HAbI+n3Npw+IFgkADmEVfCZf9HGYhz
8hB/9A9+RkpKTtVt21/CAvDapqcn9T94StLT46RD8V18HZEejuw25hPwyo8dHczB
YLijP8xz3XjNM59a8bVJnWlAlPznSNzShfHr08tkcwqwyM0C9ViXUi4oPJbRmVdU
uaT/dYN/atwSpJY5rixI9KnBw2pjOtvA0nsFzyzZYhrL5KIwaKHkdkqrOVpIueEW
LY6bmdgxRzkUnTxGX7DFmBUNIXBB9bwYlYnDSaZb8sF1rY9Qkfc+mEqdgNkxWzid
yRzLd7zr2rg708qWURjNdoz5JCZtLD5+P2dSBMoWR3/5bksO1BU2mfKLAST+xsHf
hh493TpRf2l5Wr/LnxcOy9R2jds6czfdHHaV5PQuE7nA0ZUrzE8iqw4ZfvaMRedg
PA2BfwIDAQABo2AwXjAdBgNVHQ4EFgQU6Uo5OfqUgRTo444oggBs85IHavMwHwYD
VR0jBBgwFoAU6Uo5OfqUgRTo444oggBs85IHavMwDwYDVR0TAQH/BAUwAwEB/zAL
BgNVHQ8EBAMCAQYwDQYJKoZIhvcNAQELBQADggIBAAQkqfFkFT9WW1EBQKBzpIm9
bFBodNvIY4oXOd6HWGzaEiFJET+Z+k3bHmHvoUqBO1Ra0FwijLeC+3br1IO0y3Mo
HD4GNxYfbm2NwCszvID0bebV7gnUdGA+ocANPy4qvyv/GVZeJKjMSlMb4pSI9NT9
nbSfduCKZ8y88yuDFXGQqkuHUMufQaHRfOk7CvzteVF/FzFnCyuvhUx4n7GmnB8O
EIGtjqvZC1AIbA2X2EYPcUTqvd3H5u8lzWCAAIu+YOz/HiHkW9J8y1uA+WD+1ety
cIf+P+aPz+8LrqCyAKRfNfJbuRHmF5Wy1o4ACG+Ml3xrHcilcDSU8AzdqUnDT85h
iyohrTBGvINeNokHsQZ7H14eYJNYFyJS6y2m4iyHa5GxG5qGRfgAKkRU8jSwKeXZ
TEGr8QijnU6IaWdZ5Brw19r9aBAmwK7Y2eROzxj3S9YGXUFzdxwfHFwpzG6g+/6S
SRpca5FOlTBDzbD+FwQ8U94adWP1QyK0OGUxUe84CjIP5oLzE41HvsLH7hSM+An7
fKs2vcd46nmdLJnxv9IyfrcNEqKd2bLV5KBteILVhGTALBx//fOKC6oY5o8oJcXF
dvkRaM9fyf9H4hteRo356prJ2NwWIVeKkO2ntlwkYbfFFXVtkZgWKifBm0UmER4F
eDBAqdG7HieqLY2KPLbW
-----END CERTIFICATE-----
